Certificate:
    Data:
        Version: 3 (0x2)
        Serial Number: 1 (0x1)
        Signature Algorithm: sha256WithRSAEncryption
        Issuer: C=US, ST=Washington, L=Seattle, O=DellEMC, CN=DellEMC SE Lab/emailAddress=craig.j.smith@dell.com
        Validity
            Not Before: Feb 22 21:48:51 2019 GMT
            Not After : Feb 19 21:48:51 2029 GMT
        Subject: C=US, ST=Washington, O=DellEMC, CN=se.lab.emc.com
        Subject Public Key Info:
            Public Key Algorithm: rsaEncryption
            RSA Public Key: (4096 bit)
                Modulus (4096 bit):
                    00:c5:83:b0:a9:72:de:aa:e4:2d:2d:80:de:4f:05:
                    be:96:04:c7:fe:3c:26:3e:b7:b0:0c:43:0d:0d:c0:
                    64:69:0f:cb:9b:e8:a0:7c:ae:05:86:40:f4:53:8b:
                    f3:3a:f5:98:34:db:3e:dd:bb:e8:67:de:7d:19:f1:
                    3d:a8:dd:f7:4d:50:c5:87:b6:a7:99:12:3b:b5:8d:
                    6f:b2:c4:50:87:08:c9:6b:9f:a9:4e:b8:40:a6:78:
                    34:01:d1:d8:68:3b:6e:f1:6c:2e:8e:b5:18:74:f6:
                    ee:f0:a9:8c:45:3b:88:74:f4:72:fd:80:91:19:a1:
                    b0:dc:60:c8:b6:96:6c:07:21:0a:6b:56:02:af:db:
                    97:0a:b3:1c:65:12:0d:d4:f3:8a:45:c4:fe:4c:71:
                    65:b5:7c:87:39:9b:5b:a7:4d:76:93:39:4a:5c:b4:
                    fd:00:f6:86:56:0e:d4:b7:51:be:ca:b6:16:3d:5f:
                    67:49:00:90:36:ea:f5:cd:96:7f:d7:b6:1c:51:c2:
                    23:17:26:4c:1f:86:bf:9f:66:2f:d1:ec:6e:57:82:
                    35:2e:b6:54:29:4f:24:ba:81:01:7a:2d:86:68:d2:
                    0c:78:e4:f1:ae:57:fd:c1:c7:1d:43:dd:de:08:cb:
                    2b:8d:17:27:64:34:c8:2f:6f:a6:46:91:69:fc:ac:
                    9f:8a:b8:9e:07:17:a3:e9:94:68:73:59:f3:38:09:
                    0e:21:28:01:84:15:90:f8:da:e6:0e:73:11:e0:3d:
                    27:34:ff:8b:94:7a:ae:13:91:48:62:91:6d:1f:42:
                    cd:e3:89:ec:18:5a:9a:31:3b:9b:3d:1b:41:82:1b:
                    61:9d:74:25:ee:d1:92:56:a7:ad:31:b0:6b:b4:6b:
                    cd:91:62:e2:59:a8:c8:57:2a:3e:ee:6f:c9:19:e8:
                    1e:11:20:c1:d0:9c:89:8e:02:0a:00:06:ef:aa:c5:
                    5b:d7:84:26:b7:72:41:a4:bf:ec:c9:c1:37:0b:31:
                    c7:ed:b8:f9:96:fc:4f:a3:e2:e1:28:29:21:48:ef:
                    28:29:ad:73:fd:c4:a4:1c:04:e9:a1:79:a3:2b:cf:
                    98:0c:6b:26:92:e3:95:c2:39:55:88:78:05:e7:95:
                    07:5c:f0:38:cc:2a:65:63:b9:d1:2c:2d:28:8b:c3:
                    62:eb:4d:53:44:be:f2:a5:7e:2e:08:84:81:46:0a:
                    16:f7:b9:11:42:d1:e0:02:b4:c5:a3:00:f3:8b:ed:
                    b2:51:44:9e:bd:bf:fb:61:f1:c6:8f:11:fa:67:41:
                    6c:68:af:8d:59:b5:3e:c5:f9:3f:b4:d0:f9:c4:cb:
                    9e:6b:c6:b1:34:a8:96:61:e8:90:d8:da:39:64:8a:
                    81:15:ab
                Exponent: 65537 (0x10001)
        X509v3 extensions:
            X509v3 Basic Constraints: 
                CA:FALSE
            X509v3 Subject Alternative Name: 
                DNS:*.se.lab.emc.com, DNS:se.lab.emc.com, DNS:*.paclabs.se.lab.emc.com, DNS:paclabs.se.lab.emc.com, DNS:*.norcal.se.lab.emc.com, DNS:norcal.se.lab.emc.com, DNS:*.pcf.paclabs.se.lab.emc.com, DNS:*.apps.paclabs.se.lab.emc.com, DNS:*.bellevuelab.isus.emc.com, DNS:pcf.paclabs.se.lab.emc.com, DNS:apps.paclabs.se.lab.emc.com, DNS:*.login.pcf.paclabs.se.lab.emc.com, DNS:*.uaa.pcf.paclabs.se.lab.emc.com, DNS:*.pcf.norcal.se.lab.emc.com, DNS:*.apps.norcal.se.lab.emc.com, DNS:pcf.norcal.se.lab.emc.com, DNS:apps.norcal.se.lab.emc.com, DNS:*.login.pcf.norcal.se.lab.emc.com, DNS:*.uaa.pcf.norcal.se.lab.emc.com, DNS:*.container.se.lab.emc.com
            X509v3 Subject Key Identifier: 
                CE:75:88:35:F5:26:25:F7:1C:24:34:57:EF:F7:33:91:28:03:8B:29
    Signature Algorithm: sha256WithRSAEncryption
        51:7f:ba:e6:2f:11:a9:d4:89:39:61:05:19:ea:17:89:c9:a0:
        2a:74:70:eb:a9:2a:42:74:4d:ec:14:3d:b9:6d:6c:8e:62:5c:
        76:74:3e:5a:5e:9b:9c:2e:f9:f5:db:f4:f0:3d:76:ea:bb:c1:
        a0:d2:c6:a9:66:3a:01:92:f8:16:39:47:21:9c:94:18:b9:c2:
        8e:c4:07:d6:f9:a4:84:ad:a6:ac:f6:fe:26:6c:8c:b2:2b:d8:
        ca:c9:a6:c3:0d:60:61:5e:95:70:ac:7f:d1:68:02:02:27:1e:
        7c:63:5d:c3:93:0b:78:9e:8e:69:44:3f:83:88:48:5b:92:e1:
        3a:33:47:52:5f:8f:7c:d3:b9:53:2c:fa:ad:ff:c0:7a:4b:b6:
        ee:21:bc:74:15:c4:d9:4f:94:14:71:3d:c7:72:77:48:e8:10:
        3f:1d:3c:c3:7d:b9:13:84:f2:f4:50:e0:a7:aa:03:27:22:ec:
        98:88:86:76:32:61:8f:0c:12:78:be:dc:0c:0a:5c:8c:15:06:
        06:04:39:0a:ef:cb:9b:e8:0f:1d:82:dd:0f:3c:cd:8e:88:c9:
        ea:86:a1:5c:7f:30:8f:a4:20:57:ea:77:17:7c:7d:4b:9c:5d:
        d8:7b:01:98:20:b1:18:3f:86:43:ee:0c:ef:0a:5f:ec:b8:21:
        99:2f:c4:b8:e2:82:28:3c:cc:c6:0d:22:53:a2:70:ec:1b:36:
        4c:d0:fb:cf:73:df:be:d3:f1:fb:e9:bf:df:32:3c:98:ed:53:
        57:eb:ed:0f:53:29:5e:32:e9:72:f8:fa:d0:2c:4b:a1:7c:4b:
        1b:36:cc:b7:60:d4:0f:a8:fc:11:94:dc:2e:0c:23:38:ac:b5:
        fc:cc:39:4f:1c:d2:6f:bb:c7:a1:d8:65:af:ce:20:07:80:a2:
        53:66:ff:7b:07:a1:fb:f2:45:73:a9:1b:52:5c:1a:2b:a5:6c:
        87:f5:76:17:e2:9a:d7:0f:c5:68:53:44:61:f7:41:c9:1e:0a:
        0d:68:c5:47:b1:ea:fe:ee:3d:33:85:c9:67:bc:7d:2a:ff:bd:
        0c:6e:27:4b:8b:f9:9d:35:43:32:fb:6f:87:45:b6:1a:7a:d8:
        88:e4:71:3f:12:91:8e:7b:fa:33:e5:3d:1e:e4:07:fd:05:eb:
        d6:51:24:c2:46:c1:94:71:7e:2e:5e:06:79:a4:4a:1f:77:bf:
        d5:ee:16:b7:6c:f1:f7:f2:e8:1e:3a:b5:b2:2e:35:04:19:5d:
        ed:2a:0e:36:ab:8d:98:65:77:93:cd:8c:79:da:c5:66:bd:71:
        98:02:cd:15:6f:cd:b9:42:e0:39:db:3e:db:6f:08:26:7a:28:
        2e:eb:11:f7:73:2a:6b:24
-----BEGIN CERTIFICATE-----
MIIHvjCCBaagAwIBAgIBATANBgkqhkiG9w0BAQsFADCBhjELMAkGA1UEBhMCVVMx
EzARBgNVBAgTCldhc2hpbmd0b24xEDAOBgNVBAcTB1NlYXR0bGUxEDAOBgNVBAoT
B0RlbGxFTUMxFzAVBgNVBAMTDkRlbGxFTUMgU0UgTGFiMSUwIwYJKoZIhvcNAQkB
FhZjcmFpZy5qLnNtaXRoQGRlbGwuY29tMB4XDTE5MDIyMjIxNDg1MVoXDTI5MDIx
OTIxNDg1MVowTTELMAkGA1UEBhMCVVMxEzARBgNVBAgMCldhc2hpbmd0b24xEDAO
BgNVBAoMB0RlbGxFTUMxFzAVBgNVBAMMDnNlLmxhYi5lbWMuY29tMIICIjANBgkq
hkiG9w0BAQEFAAOCAg8AMIICCgKCAgEAxYOwqXLequQtLYDeTwW+lgTH/jwmPrew
DEMNDcBkaQ/Lm+igfK4FhkD0U4vzOvWYNNs+3bvoZ959GfE9qN33TVDFh7anmRI7
tY1vssRQhwjJa5+pTrhApng0AdHYaDtu8WwujrUYdPbu8KmMRTuIdPRy/YCRGaGw
3GDItpZsByEKa1YCr9uXCrMcZRIN1POKRcT+THFltXyHOZtbp012kzlKXLT9APaG
Vg7Ut1G+yrYWPV9nSQCQNur1zZZ/17YcUcIjFyZMH4a/n2Yv0exuV4I1LrZUKU8k
uoEBei2GaNIMeOTxrlf9wccdQ93eCMsrjRcnZDTIL2+mRpFp/KyfirieBxej6ZRo
c1nzOAkOISgBhBWQ+NrmDnMR4D0nNP+LlHquE5FIYpFtH0LN44nsGFqaMTubPRtB
ghthnXQl7tGSVqetMbBrtGvNkWLiWajIVyo+7m/JGegeESDB0JyJjgIKAAbvqsVb
14Qmt3JBpL/sycE3CzHH7bj5lvxPo+LhKCkhSO8oKa1z/cSkHATpoXmjK8+YDGsm
kuOVwjlViHgF55UHXPA4zCplY7nRLC0oi8Ni601TRL7ypX4uCISBRgoW97kRQtHg
ArTFowDzi+2yUUSevb/7YfHGjxH6Z0FsaK+NWbU+xfk/tND5xMuea8axNKiWYeiQ
2No5ZIqBFasCAwEAAaOCAm0wggJpMAkGA1UdEwQCMAAwggI7BgNVHREEggIyMIIC
LoIQKi5zZS5sYWIuZW1jLmNvbYIOc2UubGFiLmVtYy5jb22CGCoucGFjbGFicy5z
ZS5sYWIuZW1jLmNvbYIWcGFjbGFicy5zZS5sYWIuZW1jLmNvbYIXKi5ub3JjYWwu
c2UubGFiLmVtYy5jb22CFW5vcmNhbC5zZS5sYWIuZW1jLmNvbYIcKi5wY2YucGFj
bGFicy5zZS5sYWIuZW1jLmNvbYIdKi5hcHBzLnBhY2xhYnMuc2UubGFiLmVtYy5j
b22CGiouYmVsbGV2dWVsYWIuaXN1cy5lbWMuY29tghpwY2YucGFjbGFicy5zZS5s
YWIuZW1jLmNvbYIbYXBwcy5wYWNsYWJzLnNlLmxhYi5lbWMuY29tgiIqLmxvZ2lu
LnBjZi5wYWNsYWJzLnNlLmxhYi5lbWMuY29tgiAqLnVhYS5wY2YucGFjbGFicy5z
ZS5sYWIuZW1jLmNvbYIbKi5wY2Yubm9yY2FsLnNlLmxhYi5lbWMuY29tghwqLmFw
cHMubm9yY2FsLnNlLmxhYi5lbWMuY29tghlwY2Yubm9yY2FsLnNlLmxhYi5lbWMu
Y29tghphcHBzLm5vcmNhbC5zZS5sYWIuZW1jLmNvbYIhKi5sb2dpbi5wY2Yubm9y
Y2FsLnNlLmxhYi5lbWMuY29tgh8qLnVhYS5wY2Yubm9yY2FsLnNlLmxhYi5lbWMu
Y29tghoqLmNvbnRhaW5lci5zZS5sYWIuZW1jLmNvbTAdBgNVHQ4EFgQUznWINfUm
JfccJDRX7/czkSgDiykwDQYJKoZIhvcNAQELBQADggIBAFF/uuYvEanUiTlhBRnq
F4nJoCp0cOupKkJ0TewUPbltbI5iXHZ0Plpem5wu+fXb9PA9duq7waDSxqlmOgGS
+BY5RyGclBi5wo7EB9b5pIStpqz2/iZsjLIr2MrJpsMNYGFelXCsf9FoAgInHnxj
XcOTC3iejmlEP4OISFuS4TozR1Jfj3zTuVMs+q3/wHpLtu4hvHQVxNlPlBRxPcdy
d0joED8dPMN9uROE8vRQ4KeqAyci7JiIhnYyYY8MEni+3AwKXIwVBgYEOQrvy5vo
Dx2C3Q88zY6IyeqGoVx/MI+kIFfqdxd8fUucXdh7AZggsRg/hkPuDO8KX+y4IZkv
xLjigig8zMYNIlOicOwbNkzQ+89z377T8fvpv98yPJjtU1fr7Q9TKV4y6XL4+tAs
S6F8Sxs2zLdg1A+o/BGU3C4MIzistfzMOU8c0m+7x6HYZa/OIAeAolNm/3sHofvy
RXOpG1JcGiulbIf1dhfimtcPxWhTRGH3QckeCg1oxUex6v7uPTOFyWe8fSr/vQxu
J0uL+Z01QzL7b4dFthp62IjkcT8SkY57+jPlPR7kB/0F69ZRJMJGwZRxfi5eBnmk
Sh93v9XuFrds8ffy6B46tbIuNQQZXe0qDjarjZhld5PNjHnaxWa9cZgCzRVvzblC
4DnbPttvCCZ6KC7rEfdzKmsk
-----END CERTIFICATE-----
