Certificate:
    Data:
        Version: 3 (0x2)
        Serial Number: 2 (0x2)
    Signature Algorithm: sha256WithRSAEncryption
        Issuer: C=US, ST=Washington, L=Seattle, O=DellEMC, CN=DellEMC SE Lab/emailAddress=craig.j.smith@dell.com
        Validity
            Not Before: Jul 11 22:06:03 2019 GMT
            Not After : Jul  8 22:06:03 2029 GMT
        Subject: C=US, ST=Washington, O=Dell, CN=127.0.0.1.xip.io
        Subject Public Key Info:
            Public Key Algorithm: rsaEncryption
                Public-Key: (4096 bit)
                Modulus:
                    00:b5:2d:6c:ca:ff:f0:98:cc:cb:87:7c:9d:fc:59:
                    14:77:30:78:c0:a0:2b:2b:41:24:34:18:63:4b:78:
                    5f:14:60:29:b6:cf:a4:fb:40:1c:3d:2e:4e:1c:b0:
                    c0:d5:2b:ea:b2:6e:89:5b:7a:97:92:ba:cc:9d:b5:
                    f5:01:82:21:f7:40:93:d1:05:5a:a6:50:29:08:ea:
                    bf:7f:4d:6b:4d:55:5a:b6:07:d0:c4:f2:28:a0:e1:
                    78:b2:d5:a3:6c:96:b1:be:e5:7b:ce:0b:dc:10:15:
                    c3:00:f8:20:4c:0e:da:d3:5b:7b:dc:c4:0e:e7:e0:
                    5d:c6:a1:71:31:9f:0e:6e:bc:99:ed:3d:ef:f3:9a:
                    ff:d9:38:07:b2:c7:9f:b1:c9:20:c4:14:9f:cf:44:
                    68:51:0e:2c:8e:5c:2f:80:2c:bc:cf:0c:e7:b9:9e:
                    ad:ed:a8:a6:f7:47:5a:30:28:44:31:76:53:c1:50:
                    9c:bd:90:19:02:4b:e4:8a:cc:88:c1:e1:20:c3:87:
                    d2:c9:08:66:30:c8:4b:5e:b0:60:15:20:14:86:c3:
                    07:c3:ad:9b:e9:bf:59:97:6a:66:13:bf:e2:d9:5d:
                    9e:ca:e3:9e:1c:e9:9d:d6:b8:23:1b:5d:c0:e1:89:
                    c4:23:39:ae:56:0b:e4:f7:6c:a6:fb:a7:7a:ee:6d:
                    2a:ae:75:fe:03:92:37:2b:f3:3d:ef:84:2b:e0:fc:
                    71:86:bb:17:cb:07:88:34:f5:7f:c5:44:8f:89:f4:
                    79:f9:13:41:4d:19:41:67:3d:56:d0:8d:3c:65:7b:
                    7c:89:6b:e4:9c:5d:91:fc:bf:63:b6:9c:41:e8:fd:
                    39:f8:29:ef:ba:3b:1f:6e:9b:46:d4:b9:bf:e9:6e:
                    b2:14:80:cf:c5:39:64:f6:02:44:45:5d:78:63:ae:
                    e6:ca:e0:fd:f2:06:92:28:87:ec:a2:42:10:c1:48:
                    c0:a4:93:51:ef:ae:98:0f:2d:e9:68:3a:ee:c7:05:
                    9e:49:9e:86:f2:c9:39:5b:56:65:6f:6c:aa:64:a4:
                    22:b3:53:1d:af:59:5d:3c:50:11:17:02:34:0e:1c:
                    8a:d1:c4:2c:d0:8b:04:17:87:75:74:d8:84:19:14:
                    c1:4a:d9:a0:b8:10:0d:05:a4:96:90:7e:26:77:f6:
                    04:4a:81:98:13:f4:f8:85:7b:6a:20:c0:c1:2b:fa:
                    0d:bc:7e:67:26:62:9d:db:5c:cf:f6:4e:27:ec:ee:
                    51:5d:d2:78:56:59:1c:28:c3:ac:fb:20:00:98:c0:
                    ed:54:b1:97:d0:6d:3d:e1:e0:48:a9:20:51:20:c8:
                    58:02:76:b8:f5:21:0c:93:42:1d:f2:84:06:29:0e:
                    46:31:0b
                Exponent: 65537 (0x10001)
        X509v3 extensions:
            X509v3 Basic Constraints: 
                CA:FALSE
            X509v3 Subject Alternative Name: 
                DNS:*.127.0.0.1.xip.io
            X509v3 Subject Key Identifier: 
                08:AC:4D:79:9A:BB:AF:56:7E:9B:7B:29:14:14:62:08:D1:ED:DE:A0
    Signature Algorithm: sha256WithRSAEncryption
         93:4d:1c:5a:3e:e9:35:72:80:b4:b8:67:b3:f7:0a:89:06:39:
         37:67:c3:7c:df:0c:58:4d:14:39:e1:5c:bd:4d:93:eb:b2:78:
         d5:75:9b:82:ca:4b:61:69:f9:19:bc:5a:fb:c2:9d:cf:3d:be:
         7b:df:82:75:6e:79:bc:80:dd:a3:2f:3f:bc:93:50:12:6b:bf:
         29:e1:88:c2:b4:c6:72:ea:aa:8b:27:4f:8e:d5:d9:5f:a1:62:
         2b:a1:49:28:5a:91:df:aa:cb:ff:a6:64:83:30:a9:5e:58:65:
         fe:5c:a3:c5:e8:69:bb:be:53:46:fc:bd:87:34:13:9b:41:e5:
         11:c6:72:79:33:5f:96:d7:e3:60:6f:fa:70:83:d0:b6:34:26:
         9b:a4:af:5f:07:02:e6:45:6c:30:0e:1e:19:ac:92:9a:43:24:
         0b:24:00:2f:bb:e0:21:84:3b:5d:d6:09:2f:4e:65:48:18:be:
         59:52:e8:34:4e:c8:d2:44:27:9d:79:24:0e:77:f5:3e:a1:e0:
         b2:bd:87:92:9a:cd:73:d6:8c:23:11:d3:52:fc:4e:2c:1a:fd:
         91:67:da:e5:48:97:88:e0:0e:14:2c:be:f7:54:59:8b:0e:df:
         1d:d5:2b:8d:ab:4c:33:35:2e:d8:76:48:35:b0:77:1d:fb:48:
         4f:a9:26:96:65:8e:b4:f1:65:71:e6:f9:32:aa:cc:aa:af:c6:
         68:da:11:e6:e7:39:f9:4a:6b:2d:5f:c9:90:87:61:b7:09:ac:
         93:90:41:4b:b7:ba:0e:b6:28:28:81:3d:05:35:dd:78:98:fb:
         cd:dd:b1:84:d4:66:1d:12:f1:2a:8f:b4:fe:26:1b:11:de:12:
         98:d0:11:99:a4:c6:7a:d8:2f:c8:b3:1e:4a:cc:01:e1:22:ab:
         f3:f1:3a:26:76:2c:59:f9:b0:d4:64:81:17:2e:79:33:e5:a6:
         8d:60:21:d8:d1:c9:49:8f:ab:21:a2:e6:f6:e6:fa:95:55:6c:
         df:52:87:f4:e4:71:1e:92:9e:67:1a:44:78:f6:08:e2:a2:d7:
         df:0b:c2:bd:f3:d2:fe:99:41:c5:4c:ae:37:09:a0:a3:4a:22:
         d5:83:af:b7:f3:7f:0f:02:79:b1:90:3a:1a:d7:76:ca:80:58:
         39:49:7d:1e:29:ec:99:1f:0e:5c:e6:20:32:ea:91:71:f0:48:
         52:f2:ca:3d:ff:0b:a0:06:3b:64:60:72:66:79:8a:6b:cc:38:
         db:ff:f0:99:56:72:ef:18:76:4e:72:7f:9d:da:16:1f:1e:e6:
         90:e8:6c:5d:b3:1d:01:1f:7a:1e:79:b5:e4:94:54:83:e1:93:
         7b:04:27:34:62:97:b5:e1
-----BEGIN CERTIFICATE-----
MIIFmTCCA4GgAwIBAgIBAjANBgkqhkiG9w0BAQsFADCBhjELMAkGA1UEBhMCVVMx
EzARBgNVBAgTCldhc2hpbmd0b24xEDAOBgNVBAcTB1NlYXR0bGUxEDAOBgNVBAoT
B0RlbGxFTUMxFzAVBgNVBAMTDkRlbGxFTUMgU0UgTGFiMSUwIwYJKoZIhvcNAQkB
FhZjcmFpZy5qLnNtaXRoQGRlbGwuY29tMB4XDTE5MDcxMTIyMDYwM1oXDTI5MDcw
ODIyMDYwM1owTDELMAkGA1UEBhMCVVMxEzARBgNVBAgMCldhc2hpbmd0b24xDTAL
BgNVBAoMBERlbGwxGTAXBgNVBAMMEDEyNy4wLjAuMS54aXAuaW8wggIiMA0GCSqG
SIb3DQEBAQUAA4ICDwAwggIKAoICAQC1LWzK//CYzMuHfJ38WRR3MHjAoCsrQSQ0
GGNLeF8UYCm2z6T7QBw9Lk4csMDVK+qybolbepeSusydtfUBgiH3QJPRBVqmUCkI
6r9/TWtNVVq2B9DE8iig4Xiy1aNslrG+5XvOC9wQFcMA+CBMDtrTW3vcxA7n4F3G
oXExnw5uvJntPe/zmv/ZOAeyx5+xySDEFJ/PRGhRDiyOXC+ALLzPDOe5nq3tqKb3
R1owKEQxdlPBUJy9kBkCS+SKzIjB4SDDh9LJCGYwyEtesGAVIBSGwwfDrZvpv1mX
amYTv+LZXZ7K454c6Z3WuCMbXcDhicQjOa5WC+T3bKb7p3rubSqudf4Dkjcr8z3v
hCvg/HGGuxfLB4g09X/FRI+J9Hn5E0FNGUFnPVbQjTxle3yJa+ScXZH8v2O2nEHo
/Tn4Ke+6Ox9um0bUub/pbrIUgM/FOWT2AkRFXXhjrubK4P3yBpIoh+yiQhDBSMCk
k1HvrpgPLeloOu7HBZ5JnobyyTlbVmVvbKpkpCKzUx2vWV08UBEXAjQOHIrRxCzQ
iwQXh3V02IQZFMFK2aC4EA0FpJaQfiZ39gRKgZgT9PiFe2ogwMEr+g28fmcmYp3b
XM/2Tifs7lFd0nhWWRwow6z7IACYwO1UsZfQbT3h4EipIFEgyFgCdrj1IQyTQh3y
hAYpDkYxCwIDAQABo0swSTAJBgNVHRMEAjAAMB0GA1UdEQQWMBSCEiouMTI3LjAu
MC4xLnhpcC5pbzAdBgNVHQ4EFgQUCKxNeZq7r1Z+m3spFBRiCNHt3qAwDQYJKoZI
hvcNAQELBQADggIBAJNNHFo+6TVygLS4Z7P3CokGOTdnw3zfDFhNFDnhXL1Nk+uy
eNV1m4LKS2Fp+Rm8WvvCnc89vnvfgnVuebyA3aMvP7yTUBJrvynhiMK0xnLqqosn
T47V2V+hYiuhSShakd+qy/+mZIMwqV5YZf5co8Xoabu+U0b8vYc0E5tB5RHGcnkz
X5bX42Bv+nCD0LY0Jpukr18HAuZFbDAOHhmskppDJAskAC+74CGEO13WCS9OZUgY
vllS6DROyNJEJ515JA539T6h4LK9h5KazXPWjCMR01L8Tiwa/ZFn2uVIl4jgDhQs
vvdUWYsO3x3VK42rTDM1Lth2SDWwdx37SE+pJpZljrTxZXHm+TKqzKqvxmjaEebn
OflKay1fyZCHYbcJrJOQQUu3ug62KCiBPQU13XiY+83dsYTUZh0S8SqPtP4mGxHe
EpjQEZmkxnrYL8izHkrMAeEiq/PxOiZ2LFn5sNRkgRcueTPlpo1gIdjRyUmPqyGi
5vbm+pVVbN9Sh/TkcR6SnmcaRHj2COKi198Lwr3z0v6ZQcVMrjcJoKNKItWDr7fz
fw8CebGQOhrXdsqAWDlJfR4p7JkfDlzmIDLqkXHwSFLyyj3/C6AGO2RgcmZ5imvM
ONv/8JlWcu8Ydk5yf53aFh8e5pDobF2zHQEfeh55teSUVIPhk3sEJzRil7Xh
-----END CERTIFICATE-----
