Certificate:
    Data:
        Version: 3 (0x2)
        Serial Number: 1 (0x1)
    Signature Algorithm: sha256WithRSAEncryption
        Issuer: C=US, ST=Washington, L=Seattle, O=DellEMC, CN=DellEMC SE Lab/emailAddress=craig.j.smith@dell.com
        Validity
            Not Before: Feb 25 05:55:15 2019 GMT
            Not After : Feb 22 05:55:15 2029 GMT
        Subject: C=US, ST=Washington, O=DellEMC, CN=se.lab.emc.com
        Subject Public Key Info:
            Public Key Algorithm: rsaEncryption
                Public-Key: (4096 bit)
                Modulus:
                    00:da:b5:0a:8f:f4:df:2e:60:55:86:be:85:71:0c:
                    a4:b1:83:a7:79:bd:4b:51:55:3a:d7:dc:13:d5:fa:
                    0b:8d:f8:c0:b6:b4:5b:dd:73:ca:44:fa:ae:44:b9:
                    6f:e3:3e:28:e8:b3:d6:c1:d9:64:12:73:c2:b6:46:
                    1b:ac:0d:ef:28:f5:26:95:dc:80:ec:10:bb:08:98:
                    46:32:f5:5b:44:df:60:09:3a:dd:61:40:b7:17:81:
                    49:24:d7:75:0b:0e:02:85:1d:c4:3d:b4:3f:9c:74:
                    97:97:1c:53:ac:c9:d7:bf:6c:95:70:a4:bd:01:53:
                    32:30:c7:c0:71:c6:f7:63:88:ea:30:e8:4b:d5:a7:
                    00:83:c9:b8:c6:69:e2:a8:f7:e0:78:06:5b:1a:0f:
                    a8:bc:18:6b:bb:3f:79:1c:7d:f6:9b:f3:66:5e:32:
                    aa:e8:58:9d:5a:31:fc:17:f7:d3:b7:e5:20:70:62:
                    57:8e:cd:9a:0e:c9:2b:28:13:d3:3b:c7:6d:95:ee:
                    2f:5f:94:50:e9:0a:91:ba:33:b1:0d:25:df:8b:34:
                    dc:86:6c:21:01:9e:ee:1d:dd:a1:35:78:c5:4c:e4:
                    9e:7a:1d:b1:79:9a:b5:ed:01:a8:e8:43:d2:74:3a:
                    2e:91:27:10:10:64:f1:0e:38:05:2b:c2:69:8e:57:
                    65:d2:d7:25:4e:ad:33:bc:48:46:df:ae:0d:1e:2d:
                    0d:cc:c6:e9:13:ac:69:55:ab:3c:1f:53:77:5c:1e:
                    c4:13:36:15:be:a4:0d:61:83:47:93:32:70:70:88:
                    43:e9:bb:91:33:57:9d:be:a5:16:c8:4d:2e:7d:c7:
                    97:d9:1a:4a:29:4e:9f:cd:3d:5c:f5:8a:d1:f1:97:
                    50:cf:b4:8c:43:ab:f2:f7:ac:db:a7:f7:d8:04:14:
                    62:87:07:48:de:24:77:09:1c:d4:81:fe:68:d5:fb:
                    b1:90:fd:81:6d:4b:ed:cb:d9:a4:0f:2c:2f:8a:92:
                    fa:0a:8e:26:0e:3d:bb:80:77:dc:0c:34:50:f6:9e:
                    0a:6e:77:9e:6d:6c:d7:77:09:f7:f6:e6:96:cf:c3:
                    d7:43:48:88:50:bb:a0:8d:b1:55:ad:1d:b0:a3:1d:
                    69:2b:5e:5f:6d:03:79:3d:a5:0a:79:73:58:3b:ce:
                    2f:d5:da:24:99:86:1c:d9:fd:f0:0d:0d:c6:17:e2:
                    0b:d3:c4:e9:6e:d4:a2:26:d4:8c:dc:0c:ed:96:a4:
                    a2:02:d6:f1:f5:40:08:66:bd:66:51:18:3b:ba:a6:
                    07:ea:f3:7f:dd:84:ce:f3:cc:1d:56:b1:84:73:f0:
                    f6:3c:fa:d7:73:7f:ec:c4:91:34:68:f5:12:6f:d3:
                    55:55:3f
                Exponent: 65537 (0x10001)
        X509v3 extensions:
            X509v3 Basic Constraints: 
                CA:FALSE
            X509v3 Subject Alternative Name: 
                DNS:*.se.lab.emc.com, DNS:se.lab.emc.com, DNS:*.paclabs.se.lab.emc.com, DNS:paclabs.se.lab.emc.com, DNS:*.norcal.se.lab.emc.com, DNS:norcal.se.lab.emc.com, DNS:*.pcf.paclabs.se.lab.emc.com, DNS:*.apps.paclabs.se.lab.emc.com, DNS:*.bellevuelab.isus.emc.com, DNS:pcf.paclabs.se.lab.emc.com, DNS:apps.paclabs.se.lab.emc.com, DNS:*.login.pcf.paclabs.se.lab.emc.com, DNS:*.uaa.pcf.paclabs.se.lab.emc.com, DNS:*.pcf.norcal.se.lab.emc.com, DNS:*.apps.norcal.se.lab.emc.com, DNS:pcf.norcal.se.lab.emc.com, DNS:apps.norcal.se.lab.emc.com, DNS:*.login.pcf.norcal.se.lab.emc.com, DNS:*.uaa.pcf.norcal.se.lab.emc.com, DNS:*.container.se.lab.emc.com, DNS:*.127.0.0.1.xip.io
            X509v3 Subject Key Identifier: 
                C4:8C:EB:2D:F6:59:29:6F:6E:E7:87:54:4E:BC:1F:AE:2C:97:D7:44
    Signature Algorithm: sha256WithRSAEncryption
         9e:43:c2:35:bf:d9:6c:6f:95:82:24:21:f5:1a:c8:e2:6d:fb:
         66:75:61:5d:c2:ca:b3:77:fa:0b:29:dc:56:58:39:1f:13:ae:
         02:80:b8:9e:45:e9:71:97:75:f4:0a:a7:55:3a:78:ea:20:75:
         6a:49:6e:66:c0:f0:c0:2f:17:90:44:1c:78:31:0b:8d:f2:84:
         3c:db:03:e1:96:c2:27:78:9d:45:36:6a:33:b3:ec:c9:b7:61:
         38:fc:e7:17:96:6c:e3:ec:f6:88:67:4b:44:8f:b9:85:a9:b0:
         f0:57:7f:1d:41:91:5f:a7:68:52:a2:12:be:c3:2f:cf:05:1e:
         9a:81:ed:42:ca:91:1c:51:42:da:24:6f:2e:b4:42:c7:44:78:
         9c:0e:e2:dc:c0:55:68:52:48:28:76:1d:88:90:a0:43:2f:9d:
         56:47:4e:d0:6a:da:b9:b8:fb:74:ec:5f:2b:a2:3b:df:4b:07:
         40:1f:f6:7e:2d:16:f2:b0:78:f2:21:0b:35:ba:2d:74:e4:54:
         e9:f2:29:0b:0a:2b:78:ca:f2:41:08:35:4c:9a:e1:fb:c1:b6:
         b6:b8:f5:6d:aa:ec:b7:06:55:f9:81:6d:46:6c:de:a6:04:20:
         48:e8:3a:69:4a:1f:3b:50:6f:56:8b:de:2d:ef:3b:ca:dd:1f:
         13:06:11:34:56:7b:48:f3:44:fd:f3:60:48:6e:28:1e:2c:99:
         44:ce:50:7f:39:a7:9b:3a:90:83:71:79:0c:47:32:33:be:c3:
         6f:7b:53:17:d4:2a:d3:a9:52:ca:fe:af:1b:5b:c0:45:8c:ce:
         47:54:80:40:c8:45:77:0f:5b:67:c6:0b:89:4f:9b:09:9f:5b:
         82:fb:03:c1:9e:99:bf:08:cf:ac:bc:56:88:a9:dc:1c:11:d3:
         81:b7:d7:1f:c3:c0:8f:00:8a:04:ed:21:a9:c9:59:f5:a0:68:
         8e:c6:f5:cd:98:e1:61:20:ae:42:82:8a:45:a0:69:19:c2:b2:
         d7:0f:02:9b:8f:7b:40:c3:e1:f8:4b:8f:14:3e:cd:dd:0a:c7:
         44:c8:2b:74:4f:ef:c7:e0:ce:0e:97:52:4a:3c:89:6f:61:0f:
         b6:90:8e:42:13:ab:6e:59:d1:1e:3e:18:b0:f2:b2:a7:7a:f7:
         4f:dc:36:3e:8c:30:35:4d:69:f8:59:23:9c:a1:de:15:88:6e:
         e0:33:7e:27:1c:58:82:2b:37:55:5f:73:d2:4d:e5:af:f5:ec:
         eb:ee:33:b5:6a:b5:8f:96:a8:e2:1f:8b:26:07:4c:d5:64:34:
         fc:38:b2:33:1d:ee:8f:54:c5:78:2c:27:e6:14:e8:82:a6:e3:
         94:5f:8d:70:e8:f6:ac:85
-----BEGIN CERTIFICATE-----
MIIH0jCCBbqgAwIBAgIBATANBgkqhkiG9w0BAQsFADCBhjELMAkGA1UEBhMCVVMx
EzARBgNVBAgTCldhc2hpbmd0b24xEDAOBgNVBAcTB1NlYXR0bGUxEDAOBgNVBAoT
B0RlbGxFTUMxFzAVBgNVBAMTDkRlbGxFTUMgU0UgTGFiMSUwIwYJKoZIhvcNAQkB
FhZjcmFpZy5qLnNtaXRoQGRlbGwuY29tMB4XDTE5MDIyNTA1NTUxNVoXDTI5MDIy
MjA1NTUxNVowTTELMAkGA1UEBhMCVVMxEzARBgNVBAgMCldhc2hpbmd0b24xEDAO
BgNVBAoMB0RlbGxFTUMxFzAVBgNVBAMMDnNlLmxhYi5lbWMuY29tMIICIjANBgkq
hkiG9w0BAQEFAAOCAg8AMIICCgKCAgEA2rUKj/TfLmBVhr6FcQyksYOneb1LUVU6
19wT1foLjfjAtrRb3XPKRPquRLlv4z4o6LPWwdlkEnPCtkYbrA3vKPUmldyA7BC7
CJhGMvVbRN9gCTrdYUC3F4FJJNd1Cw4ChR3EPbQ/nHSXlxxTrMnXv2yVcKS9AVMy
MMfAccb3Y4jqMOhL1acAg8m4xmniqPfgeAZbGg+ovBhruz95HH32m/NmXjKq6Fid
WjH8F/fTt+UgcGJXjs2aDskrKBPTO8dtle4vX5RQ6QqRujOxDSXfizTchmwhAZ7u
Hd2hNXjFTOSeeh2xeZq17QGo6EPSdDoukScQEGTxDjgFK8Jpjldl0tclTq0zvEhG
364NHi0NzMbpE6xpVas8H1N3XB7EEzYVvqQNYYNHkzJwcIhD6buRM1edvqUWyE0u
fceX2RpKKU6fzT1c9YrR8ZdQz7SMQ6vy96zbp/fYBBRihwdI3iR3CRzUgf5o1fux
kP2BbUvty9mkDywvipL6Co4mDj27gHfcDDRQ9p4KbneebWzXdwn39uaWz8PXQ0iI
ULugjbFVrR2wox1pK15fbQN5PaUKeXNYO84v1dokmYYc2f3wDQ3GF+IL08TpbtSi
JtSM3AztlqSiAtbx9UAIZr1mURg7uqYH6vN/3YTO88wdVrGEc/D2PPrXc3/sxJE0
aPUSb9NVVT8CAwEAAaOCAoEwggJ9MAkGA1UdEwQCMAAwggJPBgNVHREEggJGMIIC
QoIQKi5zZS5sYWIuZW1jLmNvbYIOc2UubGFiLmVtYy5jb22CGCoucGFjbGFicy5z
ZS5sYWIuZW1jLmNvbYIWcGFjbGFicy5zZS5sYWIuZW1jLmNvbYIXKi5ub3JjYWwu
c2UubGFiLmVtYy5jb22CFW5vcmNhbC5zZS5sYWIuZW1jLmNvbYIcKi5wY2YucGFj
bGFicy5zZS5sYWIuZW1jLmNvbYIdKi5hcHBzLnBhY2xhYnMuc2UubGFiLmVtYy5j
b22CGiouYmVsbGV2dWVsYWIuaXN1cy5lbWMuY29tghpwY2YucGFjbGFicy5zZS5s
YWIuZW1jLmNvbYIbYXBwcy5wYWNsYWJzLnNlLmxhYi5lbWMuY29tgiIqLmxvZ2lu
LnBjZi5wYWNsYWJzLnNlLmxhYi5lbWMuY29tgiAqLnVhYS5wY2YucGFjbGFicy5z
ZS5sYWIuZW1jLmNvbYIbKi5wY2Yubm9yY2FsLnNlLmxhYi5lbWMuY29tghwqLmFw
cHMubm9yY2FsLnNlLmxhYi5lbWMuY29tghlwY2Yubm9yY2FsLnNlLmxhYi5lbWMu
Y29tghphcHBzLm5vcmNhbC5zZS5sYWIuZW1jLmNvbYIhKi5sb2dpbi5wY2Yubm9y
Y2FsLnNlLmxhYi5lbWMuY29tgh8qLnVhYS5wY2Yubm9yY2FsLnNlLmxhYi5lbWMu
Y29tghoqLmNvbnRhaW5lci5zZS5sYWIuZW1jLmNvbYISKi4xMjcuMC4wLjEueGlw
LmlvMB0GA1UdDgQWBBTEjOst9lkpb27nh1ROvB+uLJfXRDANBgkqhkiG9w0BAQsF
AAOCAgEAnkPCNb/ZbG+VgiQh9RrI4m37ZnVhXcLKs3f6CyncVlg5HxOuAoC4nkXp
cZd19AqnVTp46iB1akluZsDwwC8XkEQceDELjfKEPNsD4ZbCJ3idRTZqM7Psybdh
OPznF5Zs4+z2iGdLRI+5hamw8Fd/HUGRX6doUqISvsMvzwUemoHtQsqRHFFC2iRv
LrRCx0R4nA7i3MBVaFJIKHYdiJCgQy+dVkdO0Graubj7dOxfK6I730sHQB/2fi0W
8rB48iELNbotdORU6fIpCworeMryQQg1TJrh+8G2trj1barstwZV+YFtRmzepgQg
SOg6aUofO1BvVoveLe87yt0fEwYRNFZ7SPNE/fNgSG4oHiyZRM5QfzmnmzqQg3F5
DEcyM77Db3tTF9Qq06lSyv6vG1vARYzOR1SAQMhFdw9bZ8YLiU+bCZ9bgvsDwZ6Z
vwjPrLxWiKncHBHTgbfXH8PAjwCKBO0hqclZ9aBojsb1zZjhYSCuQoKKRaBpGcKy
1w8Cm497QMPh+EuPFD7N3QrHRMgrdE/vx+DODpdSSjyJb2EPtpCOQhOrblnRHj4Y
sPKyp3r3T9w2PowwNU1p+FkjnKHeFYhu4DN+JxxYgis3VV9z0k3lr/Xs6+4ztWq1
j5ao4h+LJgdM1WQ0/DiyMx3uj1TFeCwn5hTogqbjlF+NcOj2rIU=
-----END CERTIFICATE-----
