Certificate:
    Data:
        Version: 3 (0x2)
        Serial Number: 1 (0x1)
        Signature Algorithm: sha256WithRSAEncryption
        Issuer: C=US, ST=Washington, L=Seattle, O=DellEMC, CN=DellEMC SE Lab/emailAddress=craig.j.smith@dell.com
        Validity
            Not Before: Feb 22 20:37:21 2019 GMT
            Not After : Feb 19 20:37:21 2029 GMT
        Subject: C=US, ST=Washington, O=DellEMC, CN=se.lab.emc.com
        Subject Public Key Info:
            Public Key Algorithm: rsaEncryption
            RSA Public Key: (4096 bit)
                Modulus (4096 bit):
                    00:98:05:d2:b6:63:b9:4c:42:51:0d:62:d7:fe:9c:
                    05:d4:50:7d:36:fb:72:8d:5f:99:f5:90:ea:43:5f:
                    70:0b:d8:00:f0:ea:70:d8:63:55:cf:c4:4f:10:31:
                    89:3c:25:1f:b4:ad:c0:44:46:fc:71:97:d3:76:69:
                    d3:ce:a5:1d:52:db:3e:24:24:9a:e7:90:b8:e8:8c:
                    e0:90:1c:79:ad:a1:2a:49:fa:c8:d7:a4:c3:d1:67:
                    dc:96:93:d7:96:c6:ab:30:f2:f7:f4:84:d5:0e:06:
                    db:c9:bd:56:6f:48:de:5f:8c:66:40:79:ee:ac:34:
                    35:b1:b0:74:cd:18:9e:78:e9:35:54:9e:54:1f:08:
                    a1:7a:36:d9:ce:2a:33:d5:43:a7:a9:4a:ab:eb:9b:
                    6f:05:aa:6b:82:88:2f:23:4c:d1:4b:e7:4d:c9:16:
                    3d:58:5c:27:91:91:14:d7:6b:7d:52:3f:82:58:d5:
                    14:8e:df:dc:5e:32:79:a9:3e:a1:e9:4e:d1:d2:5b:
                    2e:28:59:8d:41:05:50:54:41:a6:a5:e0:f5:81:b4:
                    3c:8d:b5:0a:b2:a5:73:97:f9:58:9e:53:95:a1:32:
                    fd:ca:f3:5d:f8:e8:05:9c:ac:32:d1:5f:33:b3:8c:
                    d8:d1:bc:4a:ea:e9:01:5b:31:b2:7d:5b:22:1d:3f:
                    e6:1f:ff:a7:33:35:c3:2f:5d:5f:d6:28:c0:1e:7c:
                    09:fc:69:1f:28:6a:7b:2b:59:b5:7f:fb:41:13:25:
                    ea:81:f9:ff:b1:53:40:8f:d4:6d:ce:09:4f:25:25:
                    08:a4:62:f8:d1:4e:1e:9d:d4:75:40:cd:61:84:ec:
                    90:81:53:c7:2f:12:64:cc:9a:a6:26:2f:f8:85:8c:
                    3a:ef:f4:e8:2b:55:e5:e1:09:db:49:70:d5:4c:9e:
                    cf:ee:60:5d:57:55:8e:2e:ca:cc:45:8b:c1:74:5d:
                    20:1f:83:b1:b4:e5:7f:9d:1f:02:3e:c1:04:6c:fd:
                    fe:bc:e8:3d:a8:d8:da:c4:22:86:45:3d:32:cb:47:
                    6a:d6:da:09:ab:ad:64:fb:e2:3a:c3:00:79:21:50:
                    e5:3d:20:3f:ee:a8:dd:08:e7:d0:b8:0e:67:08:c4:
                    f4:65:de:77:68:b4:d1:c1:b8:3f:78:6d:9f:15:70:
                    73:75:48:ca:1c:28:e1:45:a9:5d:7c:09:75:2e:50:
                    18:0a:d8:fa:a5:d1:49:8f:f0:6e:a6:6c:b4:1f:c5:
                    01:06:c7:25:82:ba:28:33:83:14:ae:ff:90:b8:4d:
                    48:58:8e:8e:c2:1f:60:c8:46:2d:17:19:77:a7:b0:
                    2e:eb:25:d8:c5:91:40:72:a8:ef:2f:e8:04:cb:8c:
                    97:56:db
                Exponent: 65537 (0x10001)
        X509v3 extensions:
            X509v3 Basic Constraints: 
                CA:FALSE
            X509v3 Subject Alternative Name: 
                DNS:*.se.lab.emc.com, DNS:se.lab.emc.com, DNS:*.paclabs.se.lab.emc.com, DNS:paclabs.se.lab.emc.com, DNS:*.norcal.se.lab.emc.com, DNS:norcal.se.lab.emc.com, DNS:*.pcf.paclabs.se.lab.emc.com, DNS:*.apps.paclabs.se.lab.emc.com, DNS:*.bellevuelab.isus.emc.com, DNS:pcf.paclabs.se.lab.emc.com, DNS:apps.paclabs.se.lab.emc.com, DNS:*.login.pcf.paclabs.se.lab.emc.com, DNS:*.uaa.pcf.paclabs.se.lab.emc.com, DNS:*.pcf.norcal.se.lab.emc.com, DNS:*.apps.norcal.se.lab.emc.com, DNS:pcf.norcal.se.lab.emc.com, DNS:apps.norcal.se.lab.emc.com, DNS:*.login.pcf.norcal.se.lab.emc.com, DNS:*.uaa.pcf.norcal.se.lab.emc.com, DNS:*.container.se.lab.emc.com
            X509v3 Subject Key Identifier: 
                6F:76:00:F3:DE:D1:79:70:96:3F:0E:AD:2B:33:9E:4F:64:00:96:4D
    Signature Algorithm: sha256WithRSAEncryption
        4d:2d:5d:aa:cf:bd:2e:85:45:19:b8:28:b4:4d:cd:b6:7e:9f:
        2b:9f:0d:67:aa:d6:1c:e5:a9:97:77:b3:b2:6e:9b:d5:4a:0c:
        54:a6:b8:0e:0e:eb:f0:78:0a:40:c7:c9:ad:f4:eb:5b:d3:52:
        28:9f:dd:f2:57:7f:42:03:7f:b8:f8:62:bd:c6:28:21:a4:0c:
        a9:71:81:b9:7a:1c:09:8b:19:50:3d:a7:5e:e2:0c:3a:44:b9:
        ff:f1:a5:08:e3:2f:7e:e5:a7:19:55:cb:e6:32:51:d4:35:03:
        be:4b:22:bf:07:c1:fc:5a:90:e4:e7:fe:26:0b:2e:c1:e5:9d:
        e6:16:83:6a:bb:dd:11:7b:2f:3d:cd:4c:a3:70:a8:6d:32:bf:
        3f:24:6c:3d:28:3c:1b:a2:b1:6d:29:da:aa:6f:37:d6:d3:b3:
        4e:05:b3:50:6b:37:a5:e0:1e:4d:4e:6e:1f:01:b5:fa:3a:df:
        9d:d6:87:17:70:64:f3:7f:a4:27:26:a0:34:92:cc:9c:7b:e4:
        6d:21:16:40:9b:5d:8b:87:12:d4:6e:e7:0b:6a:bc:85:3e:63:
        64:8d:31:f4:e4:64:a1:b1:98:cc:74:a7:96:37:e9:ad:ea:5f:
        6a:e0:90:c1:20:b8:5a:a3:f0:81:55:c5:84:6c:4b:9e:e7:a4:
        07:3d:f1:13:af:d4:dc:25:93:32:b0:ef:30:2a:30:48:9e:39:
        91:62:40:c2:22:78:3b:d9:7c:15:b4:38:fa:08:57:4d:d0:ac:
        69:6a:9c:69:7d:2c:b4:c0:d9:30:3b:3b:48:1a:94:f7:70:ed:
        b5:5e:17:d7:90:8f:49:1f:dc:ee:1c:ac:c5:80:e4:90:f1:dc:
        13:60:d6:69:43:39:21:02:c4:fb:d5:92:0e:79:58:9e:ac:d4:
        31:1d:ab:5d:6f:a4:51:44:02:bb:2f:c0:8b:f9:a7:77:71:3a:
        09:b2:9c:d5:9e:4f:b9:39:74:d4:7c:1d:21:ac:5f:bf:e7:d0:
        b7:17:de:94:96:d0:bf:92:1b:90:a9:22:3f:d4:29:29:54:84:
        83:20:f7:62:14:ba:26:4d:b1:4c:4f:4d:e9:a4:b8:35:e1:25:
        13:33:7f:98:c0:1e:10:2e:16:59:28:8d:ec:a5:bb:0f:a2:85:
        eb:90:fe:29:76:c4:17:de:64:d6:16:d4:ce:eb:c7:a9:02:ea:
        d0:9d:36:32:3e:2f:22:7a:e7:f7:b8:00:60:48:62:38:56:bd:
        aa:6d:e7:cf:0a:ab:66:50:de:98:03:2f:64:0f:63:8f:1c:15:
        81:5e:5c:cd:f0:aa:a3:31:85:69:fb:3d:42:56:14:72:08:37:
        9d:21:d6:b9:42:35:50:5a
-----BEGIN CERTIFICATE-----
MIIHvjCCBaagAwIBAgIBATANBgkqhkiG9w0BAQsFADCBhjELMAkGA1UEBhMCVVMx
EzARBgNVBAgTCldhc2hpbmd0b24xEDAOBgNVBAcTB1NlYXR0bGUxEDAOBgNVBAoT
B0RlbGxFTUMxFzAVBgNVBAMTDkRlbGxFTUMgU0UgTGFiMSUwIwYJKoZIhvcNAQkB
FhZjcmFpZy5qLnNtaXRoQGRlbGwuY29tMB4XDTE5MDIyMjIwMzcyMVoXDTI5MDIx
OTIwMzcyMVowTTELMAkGA1UEBhMCVVMxEzARBgNVBAgMCldhc2hpbmd0b24xEDAO
BgNVBAoMB0RlbGxFTUMxFzAVBgNVBAMMDnNlLmxhYi5lbWMuY29tMIICIjANBgkq
hkiG9w0BAQEFAAOCAg8AMIICCgKCAgEAmAXStmO5TEJRDWLX/pwF1FB9NvtyjV+Z
9ZDqQ19wC9gA8Opw2GNVz8RPEDGJPCUftK3AREb8cZfTdmnTzqUdUts+JCSa55C4
6IzgkBx5raEqSfrI16TD0WfclpPXlsarMPL39ITVDgbbyb1Wb0jeX4xmQHnurDQ1
sbB0zRieeOk1VJ5UHwihejbZzioz1UOnqUqr65tvBaprgogvI0zRS+dNyRY9WFwn
kZEU12t9Uj+CWNUUjt/cXjJ5qT6h6U7R0lsuKFmNQQVQVEGmpeD1gbQ8jbUKsqVz
l/lYnlOVoTL9yvNd+OgFnKwy0V8zs4zY0bxK6ukBWzGyfVsiHT/mH/+nMzXDL11f
1ijAHnwJ/GkfKGp7K1m1f/tBEyXqgfn/sVNAj9RtzglPJSUIpGL40U4endR1QM1h
hOyQgVPHLxJkzJqmJi/4hYw67/ToK1Xl4QnbSXDVTJ7P7mBdV1WOLsrMRYvBdF0g
H4OxtOV/nR8CPsEEbP3+vOg9qNjaxCKGRT0yy0dq1toJq61k++I6wwB5IVDlPSA/
7qjdCOfQuA5nCMT0Zd53aLTRwbg/eG2fFXBzdUjKHCjhRaldfAl1LlAYCtj6pdFJ
j/Bupmy0H8UBBsclgrooM4MUrv+QuE1IWI6Owh9gyEYtFxl3p7Au6yXYxZFAcqjv
L+gEy4yXVtsCAwEAAaOCAm0wggJpMAkGA1UdEwQCMAAwggI7BgNVHREEggIyMIIC
LoIQKi5zZS5sYWIuZW1jLmNvbYIOc2UubGFiLmVtYy5jb22CGCoucGFjbGFicy5z
ZS5sYWIuZW1jLmNvbYIWcGFjbGFicy5zZS5sYWIuZW1jLmNvbYIXKi5ub3JjYWwu
c2UubGFiLmVtYy5jb22CFW5vcmNhbC5zZS5sYWIuZW1jLmNvbYIcKi5wY2YucGFj
bGFicy5zZS5sYWIuZW1jLmNvbYIdKi5hcHBzLnBhY2xhYnMuc2UubGFiLmVtYy5j
b22CGiouYmVsbGV2dWVsYWIuaXN1cy5lbWMuY29tghpwY2YucGFjbGFicy5zZS5s
YWIuZW1jLmNvbYIbYXBwcy5wYWNsYWJzLnNlLmxhYi5lbWMuY29tgiIqLmxvZ2lu
LnBjZi5wYWNsYWJzLnNlLmxhYi5lbWMuY29tgiAqLnVhYS5wY2YucGFjbGFicy5z
ZS5sYWIuZW1jLmNvbYIbKi5wY2Yubm9yY2FsLnNlLmxhYi5lbWMuY29tghwqLmFw
cHMubm9yY2FsLnNlLmxhYi5lbWMuY29tghlwY2Yubm9yY2FsLnNlLmxhYi5lbWMu
Y29tghphcHBzLm5vcmNhbC5zZS5sYWIuZW1jLmNvbYIhKi5sb2dpbi5wY2Yubm9y
Y2FsLnNlLmxhYi5lbWMuY29tgh8qLnVhYS5wY2Yubm9yY2FsLnNlLmxhYi5lbWMu
Y29tghoqLmNvbnRhaW5lci5zZS5sYWIuZW1jLmNvbTAdBgNVHQ4EFgQUb3YA897R
eXCWPw6tKzOeT2QAlk0wDQYJKoZIhvcNAQELBQADggIBAE0tXarPvS6FRRm4KLRN
zbZ+nyufDWeq1hzlqZd3s7Jum9VKDFSmuA4O6/B4CkDHya3061vTUiif3fJXf0ID
f7j4Yr3GKCGkDKlxgbl6HAmLGVA9p17iDDpEuf/xpQjjL37lpxlVy+YyUdQ1A75L
Ir8HwfxakOTn/iYLLsHlneYWg2q73RF7Lz3NTKNwqG0yvz8kbD0oPBuisW0p2qpv
N9bTs04Fs1BrN6XgHk1Obh8Btfo6353WhxdwZPN/pCcmoDSSzJx75G0hFkCbXYuH
EtRu5wtqvIU+Y2SNMfTkZKGxmMx0p5Y36a3qX2rgkMEguFqj8IFVxYRsS57npAc9
8ROv1NwlkzKw7zAqMEieOZFiQMIieDvZfBW0OPoIV03QrGlqnGl9LLTA2TA7O0ga
lPdw7bVeF9eQj0kf3O4crMWA5JDx3BNg1mlDOSECxPvVkg55WJ6s1DEdq11vpFFE
ArsvwIv5p3dxOgmynNWeT7k5dNR8HSGsX7/n0LcX3pSW0L+SG5CpIj/UKSlUhIMg
92IUuiZNsUxPTemkuDXhJRMzf5jAHhAuFlkojeyluw+iheuQ/il2xBfeZNYW1M7r
x6kC6tCdNjI+LyJ65/e4AGBIYjhWvapt588Kq2ZQ3pgDL2QPY48cFYFeXM3wqqMx
hWn7PUJWFHIIN50h1rlCNVBa
-----END CERTIFICATE-----
